; Function Attrs: mustprogress uwtable
define hidden void @_ZNK4cvc58internal6theory2fp14symfpuSymbolic19symbolicPropositionaaERKS4_(ptr dead_on_unwind noalias writable writeonly sret(%"class.cvc5::internal::theory::fp::symfpuSymbolic::symbolicProposition") align 8 captures(none) %0, ptr noundef nonnull readonly align 8 captures(none) dereferenceable(8) %1, ptr noundef nonnull readonly align 8 captures(none) dereferenceable(8) %2) local_unnamed_addr #3 align 2 personality ptr @__gxx_personality_v0 {
.noexc:
  %3 = alloca %"class.cvc5::internal::NodeBuilder", align 8
  %4 = alloca %"class.cvc5::internal::NodeTemplate.0", align 8
  %5 = alloca %"class.cvc5::internal::NodeTemplate.0", align 8
  %6 = alloca %"class.cvc5::internal::NodeTemplate", align 8
  %7 = load ptr, ptr %1, align 8, !tbaa !22
  %8 = load ptr, ptr %2, align 8, !tbaa !22
  call void @llvm.lifetime.start.p0(i64 8, ptr nonnull %4)
  call void @llvm.lifetime.start.p0(i64 8, ptr nonnull %5)
  call void @llvm.lifetime.start.p0(i64 128, ptr nonnull %3) #23, !noalias !49
  %9 = getelementptr inbounds nuw i8, ptr %7, i64 16
  %10 = load ptr, ptr %9, align 8, !tbaa !46, !noalias !49
  call void @_ZN4cvc58internal11NodeBuilderC1EPNS0_11NodeManagerENS0_4kind6Kind_tE(ptr noundef nonnull align 8 dereferenceable(124) %3, ptr noundef %10, i32 noundef 93)
  store ptr %7, ptr %4, align 8, !tbaa !28, !noalias !49
  %11 = invoke noundef nonnull align 8 dereferenceable(124) ptr @_ZN4cvc58internal11NodeBuilderlsENS0_12NodeTemplateILb0EEE(ptr noundef nonnull align 8 dereferenceable(124) %3, ptr noundef nonnull %4)
          to label %12 unwind label %17, !noalias !49

12:                                               ; preds = %.noexc
  store ptr %8, ptr %5, align 8, !tbaa !28, !noalias !49
  %13 = invoke noundef nonnull align 8 dereferenceable(124) ptr @_ZN4cvc58internal11NodeBuilderlsENS0_12NodeTemplateILb0EEE(ptr noundef nonnull align 8 dereferenceable(124) %11, ptr noundef nonnull %5)
          to label %14 unwind label %19, !noalias !49

14:                                               ; preds = %12
  invoke void @_ZN4cvc58internal11NodeBuilder13constructNodeEv(ptr dead_on_unwind nonnull writable sret(%"class.cvc5::internal::NodeTemplate") align 8 %6, ptr noundef nonnull align 8 dereferenceable(124) %3)
          to label %22 unwind label %15

15:                                               ; preds = %14
  %16 = landingpad { ptr, i32 }
          cleanup
  br label %21

17:                                               ; preds = %.noexc
  %18 = landingpad { ptr, i32 }
          cleanup
  br label %21

19:                                               ; preds = %12
  %20 = landingpad { ptr, i32 }
          cleanup
  br label %21

21:                                               ; preds = %19, %17, %15
  %.pn5.i = phi { ptr, i32 } [ %16, %15 ], [ %20, %19 ], [ %18, %17 ]
  call void @_ZN4cvc58internal11NodeBuilderD1Ev(ptr noundef nonnull align 8 dereferenceable(124) %3) #23
  call void @llvm.lifetime.end.p0(i64 128, ptr nonnull %3) #23, !noalias !49
  br label %.body

22:                                               ; preds = %14
  call void @_ZN4cvc58internal11NodeBuilderD1Ev(ptr noundef nonnull align 8 dereferenceable(124) %3) #23
  call void @llvm.lifetime.end.p0(i64 128, ptr nonnull %3) #23, !noalias !49
  call void @llvm.lifetime.end.p0(i64 8, ptr nonnull %4)
  call void @llvm.lifetime.end.p0(i64 8, ptr nonnull %5)
  %23 = load ptr, ptr %6, align 8, !tbaa !22
  store ptr %23, ptr %0, align 8, !tbaa !22
  %24 = load i64, ptr %23, align 8
  %25 = lshr i64 %24, 40
  %26 = trunc nuw nsw i64 %25 to i32
  %27 = and i32 %26, 1048575
  %28 = icmp samesign ult i32 %27, 1048574
  br i1 %28, label %29, label %34, !prof !24

29:                                               ; preds = %22
  %30 = add i64 %24, 1099511627776
  %31 = and i64 %30, 1152920405095219200
  %32 = and i64 %24, -1152920405095219201
  %33 = or disjoint i64 %31, %32
  store i64 %33, ptr %23, align 8
  br label %_ZN4cvc58internal6theory2fp14symfpuSymbolic19symbolicPropositionC2ENS0_12NodeTemplateILb1EEE.exit

34:                                               ; preds = %22
  %35 = icmp eq i32 %27, 1048574
  br i1 %35, label %36, label %_ZN4cvc58internal6theory2fp14symfpuSymbolic19symbolicPropositionC2ENS0_12NodeTemplateILb1EEE.exit, !prof !9

36:                                               ; preds = %34
  %37 = or i64 %24, 1152920405095219200
  store i64 %37, ptr %23, align 8
  invoke void @_ZN4cvc58internal4expr9NodeValue20markRefCountMaxedOutEv(ptr noundef nonnull align 8 dereferenceable(24) %23)
          to label %_ZN4cvc58internal6theory2fp14symfpuSymbolic19symbolicPropositionC2ENS0_12NodeTemplateILb1EEE.exit unwind label %51

_ZN4cvc58internal6theory2fp14symfpuSymbolic19symbolicPropositionC2ENS0_12NodeTemplateILb1EEE.exit: ; preds = %34, %29, %36
  %38 = load ptr, ptr %6, align 8, !tbaa !22
  %39 = load i64, ptr %38, align 8
  %40 = and i64 %39, 1152920405095219200
  %.not.i.i = icmp eq i64 %40, 1152920405095219200
  br i1 %.not.i.i, label %_ZN4cvc58internal12NodeTemplateILb1EED2Ev.exit, label %41, !prof !9

41:                                               ; preds = %_ZN4cvc58internal6theory2fp14symfpuSymbolic19symbolicPropositionC2ENS0_12NodeTemplateILb1EEE.exit
  %42 = add i64 %39, 1152920405095219200
  %43 = and i64 %42, 1152920405095219200
  %44 = and i64 %39, -1152920405095219201
  %45 = or disjoint i64 %43, %44
  store i64 %45, ptr %38, align 8
  %46 = icmp eq i64 %43, 0
  br i1 %46, label %47, label %_ZN4cvc58internal12NodeTemplateILb1EED2Ev.exit, !prof !9

47:                                               ; preds = %41
  invoke void @_ZN4cvc58internal4expr9NodeValue15markForDeletionEv(ptr noundef nonnull align 8 dereferenceable(24) %38)
          to label %_ZN4cvc58internal12NodeTemplateILb1EED2Ev.exit unwind label %48

48:                                               ; preds = %47
  %49 = landingpad { ptr, i32 }
          catch ptr null
  %50 = extractvalue { ptr, i32 } %49, 0
  call void @__clang_call_terminate(ptr %50) #24
  unreachable

_ZN4cvc58internal12NodeTemplateILb1EED2Ev.exit:   ; preds = %_ZN4cvc58internal6theory2fp14symfpuSymbolic19symbolicPropositionC2ENS0_12NodeTemplateILb1EEE.exit, %41, %47
  ret void

51:                                               ; preds = %36
  %52 = landingpad { ptr, i32 }
          cleanup
  call void @_ZN4cvc58internal12NodeTemplateILb1EED2Ev(ptr noundef nonnull align 8 dereferenceable(8) %6) #23
  br label %.body

.body:                                            ; preds = %21, %51
  %.pn = phi { ptr, i32 } [ %52, %51 ], [ %.pn5.i, %21 ]
  resume { ptr, i32 } %.pn
}